target datalayout = "e-m:e-p270:32:32-p271:32:32-p272:64:64-i64:64-i128:128-f80:128-n8:16:32:64-S128"
target triple = "x86_64-pc-linux-gnu"

%struct._GLFWlibrary = type { i32, %struct.GLFWallocator, %struct._GLFWplatform, %struct.anon, ptr, ptr, ptr, ptr, i32, i32, [16 x %struct._GLFWjoystick], ptr, i32, %struct._GLFWtls, %struct._GLFWtls, %struct._GLFWmutex, %struct.anon.8, %struct.anon.9, %struct.anon.10, %struct.anon.11, %struct.anon.12, %struct._GLFWlibraryWayland, %struct._GLFWlibraryX11, %struct._GLFWlibraryNull, %struct._GLFWlibraryGLX, %struct._GLFWlibraryLinux }
%struct.GLFWallocator = type { ptr, ptr, ptr, ptr }
%struct._GLFWplatform = type { i32, ptr, ptr, ptr, ptr, ptr, ptr, ptr, ptr, ptr, ptr, ptr, ptr, ptr, ptr, ptr, ptr, ptr, ptr, ptr, ptr, ptr, ptr, ptr, ptr, ptr, ptr, ptr, ptr, ptr, ptr, ptr, ptr, ptr, ptr, ptr, ptr, ptr, ptr, ptr, ptr, ptr, ptr, ptr, ptr, ptr, ptr, ptr, ptr, ptr, ptr, ptr, ptr, ptr, ptr, ptr, ptr, ptr, ptr, ptr, ptr, ptr, ptr, ptr, ptr, ptr, ptr, ptr, ptr, ptr, ptr, ptr }
%struct.anon = type { %struct._GLFWinitconfig, %struct._GLFWfbconfig, %struct._GLFWwndconfig, %struct._GLFWctxconfig, i32 }
%struct._GLFWinitconfig = type { i32, i32, i32, ptr, %struct.anon.0, %struct.anon.1, %struct.anon.2 }
%struct.anon.0 = type { i32, i32 }
%struct.anon.1 = type { i32 }
%struct.anon.2 = type { i32 }
%struct._GLFWfbconfig = type { i32, i32, i32, i32, i32, i32, i32, i32, i32, i32, i32, i32, i32, i32, i32, i32, i64 }
%struct._GLFWwndconfig = type { i32, i32, i32, i32, ptr, i32, i32, i32, i32, i32, i32, i32, i32, i32, i32, i32, i32, %struct.anon.3, %struct.anon.4, %struct.anon.5, %struct.anon.6 }
%struct.anon.3 = type { [256 x i8] }
%struct.anon.4 = type { [256 x i8], [256 x i8] }
%struct.anon.5 = type { i32, i32 }
%struct.anon.6 = type { [256 x i8] }
%struct._GLFWctxconfig = type { i32, i32, i32, i32, i32, i32, i32, i32, i32, i32, ptr, %struct.anon.7 }
%struct.anon.7 = type { i32 }
%struct._GLFWjoystick = type { i32, i32, ptr, i32, ptr, i32, ptr, i32, [128 x i8], ptr, [33 x i8], ptr, %struct._GLFWjoystickLinux }
%struct._GLFWjoystickLinux = type { i32, [4096 x i8], [512 x i32], [64 x i32], [64 x %struct.input_absinfo], [4 x [2 x i32]] }
%struct.input_absinfo = type { i32, i32, i32, i32, i32, i32 }
%struct._GLFWtls = type { %struct._GLFWtlsPOSIX }
%struct._GLFWtlsPOSIX = type { i32, i32 }
%struct._GLFWmutex = type { %struct._GLFWmutexPOSIX }
%struct._GLFWmutexPOSIX = type { i32, %union.pthread_mutex_t }
%union.pthread_mutex_t = type { %struct.__pthread_mutex_s }
%struct.__pthread_mutex_s = type { i32, i32, i32, i32, i32, i16, i16, %struct.__pthread_internal_list }
%struct.__pthread_internal_list = type { ptr, ptr }
%struct.anon.8 = type { i64, %struct._GLFWtimerPOSIX }
%struct._GLFWtimerPOSIX = type { i32, i64 }
%struct.anon.9 = type { i32, ptr, i32, i32, i32, i32, i32, i32, i32, i32, i32, i32, i32, i32, i32, i32, i32, i32, i32, i32, ptr, ptr, ptr, ptr, ptr, ptr, ptr, ptr, ptr, ptr, ptr, ptr, ptr, ptr, ptr, ptr, ptr, ptr, ptr }
%struct.anon.10 = type { ptr, ptr, ptr, ptr, ptr, ptr, ptr, ptr }
%struct.anon.11 = type { i32, ptr, [2 x ptr], ptr, i32, i32, i32, i32, i32, i32, i32 }
%struct.anon.12 = type { ptr, ptr }
%struct._GLFWlibraryWayland = type { ptr, ptr, ptr, ptr, ptr, ptr, ptr, ptr, ptr, ptr, ptr, ptr, ptr, ptr, ptr, ptr, ptr, ptr, ptr, i32, ptr, ptr, ptr, ptr, i32, ptr, ptr, ptr, ptr, ptr, i32, i32, i32, i32, i32, i32, i32, ptr, [256 x i16], [349 x i16], [349 x [5 x i8]], %struct.anon.13, ptr, ptr, %struct.anon.14, %struct.anon.15, %struct.anon.16, %struct.anon.17 }
%struct.anon.13 = type { ptr, ptr, ptr, ptr, ptr, i32, i32, i32, i32, i32, i32, i32, ptr, ptr, ptr, ptr, ptr, ptr, ptr, ptr, ptr, ptr, ptr, ptr, ptr, ptr, ptr, ptr, ptr, ptr, ptr, ptr }
%struct.anon.14 = type { ptr, ptr, ptr, ptr, ptr, ptr, ptr, ptr, ptr, ptr, ptr, ptr, ptr, ptr, ptr, ptr, ptr, ptr, ptr, ptr }
%struct.anon.15 = type { ptr, ptr, ptr, ptr, ptr }
%struct.anon.16 = type { ptr, ptr, ptr, ptr }
%struct.anon.17 = type { ptr, ptr, ptr, i32, ptr, ptr, ptr, ptr, ptr, ptr, ptr, ptr, ptr, ptr, ptr, ptr, ptr, ptr, ptr, ptr, ptr, ptr, ptr, ptr, ptr, ptr, ptr, ptr, ptr }
%struct._GLFWlibraryX11 = type { ptr, i32, i64, float, float, i64, i64, i32, ptr, ptr, i32, ptr, ptr, [349 x [5 x i8]], [256 x i16], [349 x i16], double, double, ptr, [2 x i32], i64, i64, i64, i64, i64, i64, i64, i64, i64, i64, i64, i64, i64, i64, i64, i64, i64, i64, i64, i64, i64, i64, i64, i64, i64, i64, i64, i64, i64, i64, i64, i64, i64, i64, i64, i64, i64, i64, i64, i64, i64, i64, i64, i64, i64, i64, i64, i64, i64, i64, %struct.anon.18, %struct.anon.19, %struct.anon.20, %struct.anon.21, %struct.anon.22, %struct.anon.23, %struct.anon.24, %struct.anon.25, %struct.anon.26, %struct.anon.27, %struct.anon.28, %struct.anon.29, %struct.anon.30 }
%struct.anon.18 = type { ptr, i32, ptr, ptr, ptr, ptr, ptr, ptr, ptr, ptr, ptr, ptr, ptr, ptr, ptr, ptr, ptr, ptr, ptr, ptr, ptr, ptr, ptr, ptr, ptr, ptr, ptr, ptr, ptr, ptr, ptr, ptr, ptr, ptr, ptr, ptr, ptr, ptr, ptr, ptr, ptr, ptr, ptr, ptr, ptr, ptr, ptr, ptr, ptr, ptr, ptr, ptr, ptr, ptr, ptr, ptr, ptr, ptr, ptr, ptr, ptr, ptr, ptr, ptr, ptr, ptr, ptr, ptr, ptr, ptr, ptr, ptr, ptr, ptr, ptr, ptr, ptr, ptr, ptr, ptr, ptr, ptr, ptr, ptr, ptr, ptr, ptr, ptr }
%struct.anon.19 = type { ptr, ptr, ptr, ptr }
%struct.anon.20 = type { i32, ptr, i32, i32, i32, i32, i32, i32, ptr, ptr, ptr, ptr, ptr, ptr, ptr, ptr, ptr, ptr, ptr, ptr, ptr, ptr, ptr, ptr, ptr }
%struct.anon.21 = type { i32, i32, i32, i32, i32, i32, i32, i32, ptr, ptr, ptr, ptr, ptr, ptr, ptr, ptr, ptr }
%struct.anon.22 = type { i32, i32, i32, i32, i32 }
%struct.anon.23 = type { i32, i64, i64 }
%struct.anon.24 = type { ptr, ptr, ptr, ptr, ptr, ptr, ptr }
%struct.anon.25 = type { i32, ptr, i32, i32, ptr, ptr, ptr }
%struct.anon.26 = type { ptr, ptr }
%struct.anon.27 = type { i32, ptr, i32, i32, ptr, ptr, ptr, ptr }
%struct.anon.28 = type { i32, ptr, i32, i32, i32, i32, i32, ptr, ptr }
%struct.anon.29 = type { i32, ptr, i32, i32, i32, i32, ptr, ptr, ptr }
%struct.anon.30 = type { i32, ptr, i32, i32, i32, i32, ptr, ptr, ptr, ptr }
%struct._GLFWlibraryNull = type { i32, i32, ptr, ptr, [121 x i16], [349 x i8] }
%struct._GLFWlibraryGLX = type { i32, i32, i32, i32, ptr, ptr, ptr, ptr, ptr, ptr, ptr, ptr, ptr, ptr, ptr, ptr, ptr, ptr, ptr, ptr, ptr, ptr, ptr, ptr, i32, i32, i32, i32, i32, i32, i32, i32, i32, i32, i32, i32 }
%struct._GLFWlibraryLinux = type { i32, i32, %struct.re_pattern_buffer, i32, i32 }
%struct.re_pattern_buffer = type { ptr, i64, i64, i64, ptr, ptr, i64, i8 }
%struct._GLFWcursorWayland = type { ptr, ptr, ptr, i32, i32, i32, i32, i32 }
%struct._GLFWcursor = type { ptr, %struct._GLFWcursorWayland, %struct._GLFWcursorX11 }
%struct._GLFWcursorX11 = type { i64 }

@_glfw = external global %struct._GLFWlibrary, align 8
@.str.12 = private unnamed_addr constant [8 x i8] c"default\00", align 1
@.str.13 = private unnamed_addr constant [5 x i8] c"text\00", align 1
@.str.14 = private unnamed_addr constant [10 x i8] c"crosshair\00", align 1
@.str.15 = private unnamed_addr constant [8 x i8] c"pointer\00", align 1
@.str.16 = private unnamed_addr constant [10 x i8] c"ew-resize\00", align 1
@.str.17 = private unnamed_addr constant [10 x i8] c"ns-resize\00", align 1
@.str.18 = private unnamed_addr constant [12 x i8] c"nwse-resize\00", align 1
@.str.19 = private unnamed_addr constant [12 x i8] c"nesw-resize\00", align 1
@.str.20 = private unnamed_addr constant [11 x i8] c"all-scroll\00", align 1
@.str.21 = private unnamed_addr constant [12 x i8] c"not-allowed\00", align 1
@.str.22 = private unnamed_addr constant [9 x i8] c"left_ptr\00", align 1
@.str.23 = private unnamed_addr constant [6 x i8] c"xterm\00", align 1
@.str.24 = private unnamed_addr constant [6 x i8] c"hand2\00", align 1
@.str.25 = private unnamed_addr constant [18 x i8] c"sb_h_double_arrow\00", align 1
@.str.26 = private unnamed_addr constant [18 x i8] c"sb_v_double_arrow\00", align 1
@.str.27 = private unnamed_addr constant [6 x i8] c"fleur\00", align 1
@.str.28 = private unnamed_addr constant [43 x i8] c"Wayland: Standard cursor shape unavailable\00", align 1
@.str.29 = private unnamed_addr constant [47 x i8] c"Wayland: Failed to create standard cursor \22%s\22\00", align 1

; Function Attrs: nounwind uwtable
define hidden i32 @_glfwCreateStandardCursorWayland(ptr noundef %0, i32 noundef %1) #0 {
  %3 = alloca i32, align 4
  %4 = alloca ptr, align 8
  %5 = alloca i32, align 4
  %6 = alloca ptr, align 8
  %7 = alloca i32, align 4
  store ptr %0, ptr %4, align 8, !tbaa !327
  store i32 %1, ptr %5, align 4, !tbaa !129
  call void @llvm.lifetime.start.p0(i64 8, ptr %6) #9
  store ptr null, ptr %6, align 8, !tbaa !185
  %8 = load i32, ptr %5, align 4, !tbaa !129
  switch i32 %8, label %19 [
    i32 221185, label %9
    i32 221186, label %10
    i32 221187, label %11
    i32 221188, label %12
    i32 221189, label %13
    i32 221190, label %14
    i32 221191, label %15
    i32 221192, label %16
    i32 221193, label %17
    i32 221194, label %18
  ]

9:                                                ; preds = %2
  store ptr @.str.12, ptr %6, align 8, !tbaa !185
  br label %19

10:                                               ; preds = %2
  store ptr @.str.13, ptr %6, align 8, !tbaa !185
  br label %19

11:                                               ; preds = %2
  store ptr @.str.14, ptr %6, align 8, !tbaa !185
  br label %19

12:                                               ; preds = %2
  store ptr @.str.15, ptr %6, align 8, !tbaa !185
  br label %19

13:                                               ; preds = %2
  store ptr @.str.16, ptr %6, align 8, !tbaa !185
  br label %19

14:                                               ; preds = %2
  store ptr @.str.17, ptr %6, align 8, !tbaa !185
  br label %19

15:                                               ; preds = %2
  store ptr @.str.18, ptr %6, align 8, !tbaa !185
  br label %19

16:                                               ; preds = %2
  store ptr @.str.19, ptr %6, align 8, !tbaa !185
  br label %19

17:                                               ; preds = %2
  store ptr @.str.20, ptr %6, align 8, !tbaa !185
  br label %19

18:                                               ; preds = %2
  store ptr @.str.21, ptr %6, align 8, !tbaa !185
  br label %19

19:                                               ; preds = %2, %18, %17, %16, %15, %14, %13, %12, %11, %10, %9
  %20 = load ptr, ptr getelementptr inbounds nuw (%struct.anon.15, ptr getelementptr inbounds nuw (%struct._GLFWlibraryWayland, ptr getelementptr inbounds nuw (%struct._GLFWlibrary, ptr @_glfw, i32 0, i32 21), i32 0, i32 45), i32 0, i32 3), align 8, !tbaa !330
  %21 = load ptr, ptr getelementptr inbounds nuw (%struct._GLFWlibraryWayland, ptr getelementptr inbounds nuw (%struct._GLFWlibrary, ptr @_glfw, i32 0, i32 21), i32 0, i32 26), align 8, !tbaa !331
  %22 = load ptr, ptr %6, align 8, !tbaa !185
  %23 = call ptr %20(ptr noundef %21, ptr noundef %22)
  %24 = load ptr, ptr %4, align 8, !tbaa !327
  %25 = getelementptr inbounds nuw %struct._GLFWcursor, ptr %24, i32 0, i32 1
  %26 = getelementptr inbounds nuw %struct._GLFWcursorWayland, ptr %25, i32 0, i32 0
  store ptr %23, ptr %26, align 8, !tbaa !361
  %27 = load ptr, ptr getelementptr inbounds nuw (%struct._GLFWlibraryWayland, ptr getelementptr inbounds nuw (%struct._GLFWlibrary, ptr @_glfw, i32 0, i32 21), i32 0, i32 27), align 8, !tbaa !334
  %28 = icmp ne ptr %27, null
  br i1 %28, label %29, label %37

29:                                               ; preds = %19
  %30 = load ptr, ptr getelementptr inbounds nuw (%struct.anon.15, ptr getelementptr inbounds nuw (%struct._GLFWlibraryWayland, ptr getelementptr inbounds nuw (%struct._GLFWlibrary, ptr @_glfw, i32 0, i32 21), i32 0, i32 45), i32 0, i32 3), align 8, !tbaa !330
  %31 = load ptr, ptr getelementptr inbounds nuw (%struct._GLFWlibraryWayland, ptr getelementptr inbounds nuw (%struct._GLFWlibrary, ptr @_glfw, i32 0, i32 21), i32 0, i32 27), align 8, !tbaa !334
  %32 = load ptr, ptr %6, align 8, !tbaa !185
  %33 = call ptr %30(ptr noundef %31, ptr noundef %32)
  %34 = load ptr, ptr %4, align 8, !tbaa !327
  %35 = getelementptr inbounds nuw %struct._GLFWcursor, ptr %34, i32 0, i32 1
  %36 = getelementptr inbounds nuw %struct._GLFWcursorWayland, ptr %35, i32 0, i32 1
  store ptr %33, ptr %36, align 8, !tbaa !362
  br label %37

37:                                               ; preds = %29, %19
  %38 = load ptr, ptr %4, align 8, !tbaa !327
  %39 = getelementptr inbounds nuw %struct._GLFWcursor, ptr %38, i32 0, i32 1
  %40 = getelementptr inbounds nuw %struct._GLFWcursorWayland, ptr %39, i32 0, i32 0
  %41 = load ptr, ptr %40, align 8, !tbaa !361
  %42 = icmp ne ptr %41, null
  br i1 %42, label %87, label %43

43:                                               ; preds = %37
  %44 = load i32, ptr %5, align 4, !tbaa !129
  switch i32 %44, label %52 [
    i32 221185, label %45
    i32 221186, label %46
    i32 221187, label %47
    i32 221188, label %48
    i32 221189, label %49
    i32 221190, label %50
    i32 221193, label %51
  ]

45:                                               ; preds = %43
  store ptr @.str.22, ptr %6, align 8, !tbaa !185
  br label %53

46:                                               ; preds = %43
  store ptr @.str.23, ptr %6, align 8, !tbaa !185
  br label %53

47:                                               ; preds = %43
  store ptr @.str.14, ptr %6, align 8, !tbaa !185
  br label %53

48:                                               ; preds = %43
  store ptr @.str.24, ptr %6, align 8, !tbaa !185
  br label %53

49:                                               ; preds = %43
  store ptr @.str.25, ptr %6, align 8, !tbaa !185
  br label %53

50:                                               ; preds = %43
  store ptr @.str.26, ptr %6, align 8, !tbaa !185
  br label %53

51:                                               ; preds = %43
  store ptr @.str.27, ptr %6, align 8, !tbaa !185
  br label %53

52:                                               ; preds = %43
  call void (i32, ptr, ...) @_glfwInputError(i32 noundef 65547, ptr noundef @.str.28)
  store i32 0, ptr %3, align 4
  store i32 1, ptr %7, align 4
  br label %88

53:                                               ; preds = %51, %50, %49, %48, %47, %46, %45
  %54 = load ptr, ptr getelementptr inbounds nuw (%struct.anon.15, ptr getelementptr inbounds nuw (%struct._GLFWlibraryWayland, ptr getelementptr inbounds nuw (%struct._GLFWlibrary, ptr @_glfw, i32 0, i32 21), i32 0, i32 45), i32 0, i32 3), align 8, !tbaa !330
  %55 = load ptr, ptr getelementptr inbounds nuw (%struct._GLFWlibraryWayland, ptr getelementptr inbounds nuw (%struct._GLFWlibrary, ptr @_glfw, i32 0, i32 21), i32 0, i32 26), align 8, !tbaa !331
  %56 = load ptr, ptr %6, align 8, !tbaa !185
  %57 = call ptr %54(ptr noundef %55, ptr noundef %56)
  %58 = load ptr, ptr %4, align 8, !tbaa !327
  %59 = getelementptr inbounds nuw %struct._GLFWcursor, ptr %58, i32 0, i32 1
  %60 = getelementptr inbounds nuw %struct._GLFWcursorWayland, ptr %59, i32 0, i32 0
  store ptr %57, ptr %60, align 8, !tbaa !361
  %61 = load ptr, ptr %4, align 8, !tbaa !327
  %62 = getelementptr inbounds nuw %struct._GLFWcursor, ptr %61, i32 0, i32 1
  %63 = getelementptr inbounds nuw %struct._GLFWcursorWayland, ptr %62, i32 0, i32 0
  %64 = load ptr, ptr %63, align 8, !tbaa !361
  %65 = icmp ne ptr %64, null
  br i1 %65, label %68, label %66

66:                                               ; preds = %53
  %67 = load ptr, ptr %6, align 8, !tbaa !185
  call void (i32, ptr, ...) @_glfwInputError(i32 noundef 65547, ptr noundef @.str.29, ptr noundef %67)
  store i32 0, ptr %3, align 4
  store i32 1, ptr %7, align 4
  br label %88

68:                                               ; preds = %53
  %69 = load ptr, ptr getelementptr inbounds nuw (%struct._GLFWlibraryWayland, ptr getelementptr inbounds nuw (%struct._GLFWlibrary, ptr @_glfw, i32 0, i32 21), i32 0, i32 27), align 8, !tbaa !334
  %70 = icmp ne ptr %69, null
  br i1 %70, label %71, label %86

71:                                               ; preds = %68
  %72 = load ptr, ptr %4, align 8, !tbaa !327
  %73 = getelementptr inbounds nuw %struct._GLFWcursor, ptr %72, i32 0, i32 1
  %74 = getelementptr inbounds nuw %struct._GLFWcursorWayland, ptr %73, i32 0, i32 1
  %75 = load ptr, ptr %74, align 8, !tbaa !362
  %76 = icmp ne ptr %75, null
  br i1 %76, label %85, label %77

77:                                               ; preds = %71
  %78 = load ptr, ptr getelementptr inbounds nuw (%struct.anon.15, ptr getelementptr inbounds nuw (%struct._GLFWlibraryWayland, ptr getelementptr inbounds nuw (%struct._GLFWlibrary, ptr @_glfw, i32 0, i32 21), i32 0, i32 45), i32 0, i32 3), align 8, !tbaa !330
  %79 = load ptr, ptr getelementptr inbounds nuw (%struct._GLFWlibraryWayland, ptr getelementptr inbounds nuw (%struct._GLFWlibrary, ptr @_glfw, i32 0, i32 21), i32 0, i32 27), align 8, !tbaa !334
  %80 = load ptr, ptr %6, align 8, !tbaa !185
  %81 = call ptr %78(ptr noundef %79, ptr noundef %80)
  %82 = load ptr, ptr %4, align 8, !tbaa !327
  %83 = getelementptr inbounds nuw %struct._GLFWcursor, ptr %82, i32 0, i32 1
  %84 = getelementptr inbounds nuw %struct._GLFWcursorWayland, ptr %83, i32 0, i32 1
  store ptr %81, ptr %84, align 8, !tbaa !362
  br label %85

85:                                               ; preds = %77, %71
  br label %86

86:                                               ; preds = %85, %68
  br label %87

87:                                               ; preds = %86, %37
  store i32 1, ptr %3, align 4
  store i32 1, ptr %7, align 4
  br label %88

88:                                               ; preds = %87, %66, %52
  call void @llvm.lifetime.end.p0(i64 8, ptr %6) #9
  %89 = load i32, ptr %3, align 4
  ret i32 %89
}