; Function Attrs: nounwind uwtable
define hidden range(i32 0, 2) i32 @_glfwCreateStandardCursorWayland(ptr noundef captures(none) initializes((8, 16)) %0, i32 noundef %1) local_unnamed_addr #0 {
  %switch.tableidx = add i32 %1, -221185
  %3 = icmp ult i32 %switch.tableidx, 10
  br i1 %3, label %switch.lookup, label %5

switch.lookup:                                    ; preds = %2
  %4 = zext nneg i32 %switch.tableidx to i64
  %switch.gep = getelementptr inbounds nuw [10 x ptr], ptr @switch.table._glfwCreateStandardCursorWayland, i64 0, i64 %4
  %switch.load = load ptr, ptr %switch.gep, align 8
  br label %5

5:                                                ; preds = %switch.lookup, %2
  %.0 = phi ptr [ null, %2 ], [ %switch.load, %switch.lookup ]
  %6 = load ptr, ptr getelementptr inbounds nuw (i8, ptr @_glfw, i64 137560), align 8, !tbaa !302
  %7 = load ptr, ptr getelementptr inbounds nuw (i8, ptr @_glfw, i64 134096), align 8, !tbaa !303
  %8 = tail call ptr %6(ptr noundef %7, ptr noundef %.0) #20
  %9 = getelementptr inbounds nuw i8, ptr %0, i64 8
  store ptr %8, ptr %9, align 8, !tbaa !285
  %10 = load ptr, ptr getelementptr inbounds nuw (i8, ptr @_glfw, i64 134104), align 8, !tbaa !304
  %.not = icmp eq ptr %10, null
  br i1 %.not, label %15, label %11

11:                                               ; preds = %5
  %12 = load ptr, ptr getelementptr inbounds nuw (i8, ptr @_glfw, i64 137560), align 8, !tbaa !302
  %13 = tail call ptr %12(ptr noundef nonnull %10, ptr noundef %.0) #20
  %14 = getelementptr inbounds nuw i8, ptr %0, i64 16
  store ptr %13, ptr %14, align 8, !tbaa !321
  %.pr = load ptr, ptr %9, align 8, !tbaa !285
  br label %15

15:                                               ; preds = %11, %5
  %16 = phi ptr [ %.pr, %11 ], [ %8, %5 ]
  %.not17 = icmp eq ptr %16, null
  br i1 %.not17, label %17, label %33

17:                                               ; preds = %15
  %switch.tableidx22 = add i32 %1, -221185
  %18 = icmp ult i32 %switch.tableidx22, 9
  br i1 %18, label %switch.hole_check, label %19

19:                                               ; preds = %switch.hole_check, %17
  tail call void (i32, ptr, ...) @_glfwInputError(i32 noundef 65547, ptr noundef nonnull @.str.28) #20
  br label %33

switch.hole_check:                                ; preds = %17
  %switch.maskindex = trunc nuw i32 %switch.tableidx22 to i16
  %switch.shifted = lshr i16 319, %switch.maskindex
  %switch.lobit = trunc i16 %switch.shifted to i1
  br i1 %switch.lobit, label %switch.lookup23, label %19

switch.lookup23:                                  ; preds = %switch.hole_check
  %20 = zext nneg i32 %switch.tableidx22 to i64
  %switch.gep24 = getelementptr inbounds nuw [9 x ptr], ptr @switch.table._glfwCreateStandardCursorWayland.19, i64 0, i64 %20
  %switch.load25 = load ptr, ptr %switch.gep24, align 8
  %21 = load ptr, ptr getelementptr inbounds nuw (i8, ptr @_glfw, i64 137560), align 8, !tbaa !302
  %22 = load ptr, ptr getelementptr inbounds nuw (i8, ptr @_glfw, i64 134096), align 8, !tbaa !303
  %23 = tail call ptr %21(ptr noundef %22, ptr noundef nonnull %switch.load25) #20
  store ptr %23, ptr %9, align 8, !tbaa !285
  %.not18 = icmp eq ptr %23, null
  br i1 %.not18, label %24, label %25

24:                                               ; preds = %switch.lookup23
  tail call void (i32, ptr, ...) @_glfwInputError(i32 noundef 65547, ptr noundef nonnull @.str.29, ptr noundef nonnull %switch.load25) #20
  br label %33

25:                                               ; preds = %switch.lookup23
  %26 = load ptr, ptr getelementptr inbounds nuw (i8, ptr @_glfw, i64 134104), align 8, !tbaa !304
  %.not19 = icmp eq ptr %26, null
  br i1 %.not19, label %33, label %27

27:                                               ; preds = %25
  %28 = getelementptr inbounds nuw i8, ptr %0, i64 16
  %29 = load ptr, ptr %28, align 8, !tbaa !321
  %.not20 = icmp eq ptr %29, null
  br i1 %.not20, label %30, label %33

30:                                               ; preds = %27
  %31 = load ptr, ptr getelementptr inbounds nuw (i8, ptr @_glfw, i64 137560), align 8, !tbaa !302
  %32 = tail call ptr %31(ptr noundef nonnull %26, ptr noundef nonnull %switch.load25) #20
  store ptr %32, ptr %28, align 8, !tbaa !321
  br label %33

33:                                               ; preds = %15, %27, %30, %25, %24, %19
  %.014 = phi i32 [ 0, %19 ], [ 0, %24 ], [ 1, %25 ], [ 1, %30 ], [ 1, %27 ], [ 1, %15 ]
  ret i32 %.014
}